target datalayout = "e-m:e-p270:32:32-p271:32:32-p272:64:64-i64:64-i128:128-f80:128-n8:16:32:64-S128"
target triple = "x86_64-pc-linux-gnu"

%struct.__va_list_tag = type { i32, i32, ptr, ptr }

@ett_mswsp_uin32_array = internal global i32 0, align 4
@.str.1226 = private unnamed_addr constant [3 x i8] c"%u\00", align 1
@.str.1251 = private unnamed_addr constant [4 x i8] c",%u\00", align 1
@.str.1252 = private unnamed_addr constant [2 x i8] c"]\00", align 1
@.str.1434 = private unnamed_addr constant [12 x i8] c" count %u [\00", align 1

; Function Attrs: null_pointer_is_valid sspstrong uwtable
define internal i32 @parse_uin32_array(ptr noundef %0, i32 noundef %1, ptr noundef %2, i32 noundef %3, ptr noundef %4, ...) #0 {
  %6 = alloca ptr, align 8
  %7 = alloca i32, align 4
  %8 = alloca ptr, align 8
  %9 = alloca i32, align 4
  %10 = alloca ptr, align 8
  %11 = alloca i32, align 4
  %12 = alloca i32, align 4
  %13 = alloca ptr, align 8
  %14 = alloca ptr, align 8
  %15 = alloca [1 x %struct.__va_list_tag], align 16
  store ptr %0, ptr %6, align 8
  store i32 %1, ptr %7, align 4
  store ptr %2, ptr %8, align 8
  store i32 %3, ptr %9, align 4
  store ptr %4, ptr %10, align 8
  call void @llvm.lifetime.start.p0(i64 4, ptr %11) #11
  call void @llvm.lifetime.start.p0(i64 4, ptr %12) #11
  call void @llvm.lifetime.start.p0(i64 8, ptr %13) #11
  call void @llvm.lifetime.start.p0(i64 8, ptr %14) #11
  call void @llvm.lifetime.start.p0(i64 24, ptr %15) #11
  %16 = getelementptr inbounds [1 x %struct.__va_list_tag], ptr %15, i64 0, i64 0
  call void @llvm.va_start.p0(ptr %16)
  %17 = call ptr @wmem_packet_scope()
  %18 = load ptr, ptr %10, align 8
  %19 = getelementptr inbounds [1 x %struct.__va_list_tag], ptr %15, i64 0, i64 0
  %20 = call noalias ptr @wmem_strdup_vprintf(ptr noundef %17, ptr noundef %18, ptr noundef %19)
  store ptr %20, ptr %14, align 8
  %21 = getelementptr inbounds [1 x %struct.__va_list_tag], ptr %15, i64 0, i64 0
  call void @llvm.va_end.p0(ptr %21)
  %22 = load ptr, ptr %8, align 8
  %23 = load ptr, ptr %6, align 8
  %24 = load i32, ptr %7, align 4
  %25 = load i32, ptr %9, align 4
  %26 = mul i32 %25, 4
  %27 = load i32, ptr @ett_mswsp_uin32_array, align 4
  %28 = load ptr, ptr %14, align 8
  %29 = call ptr @proto_tree_add_subtree(ptr noundef %22, ptr noundef %23, i32 noundef %24, i32 noundef %26, i32 noundef %27, ptr noundef %13, ptr noundef %28)
  %30 = load ptr, ptr %13, align 8
  %31 = load i32, ptr %9, align 4
  call void (ptr, ptr, ...) @proto_item_append_text(ptr noundef %30, ptr noundef @.str.1434, i32 noundef %31)
  store i32 0, ptr %12, align 4
  br label %32

32:                                               ; preds = %51, %5
  %33 = load i32, ptr %12, align 4
  %34 = load i32, ptr %9, align 4
  %35 = icmp ult i32 %33, %34
  br i1 %35, label %36, label %54

36:                                               ; preds = %32
  %37 = load ptr, ptr %6, align 8
  %38 = load i32, ptr %7, align 4
  %39 = call i32 @tvb_get_letohl(ptr noundef %37, i32 noundef %38)
  store i32 %39, ptr %11, align 4
  %40 = load i32, ptr %7, align 4
  %41 = add i32 %40, 4
  store i32 %41, ptr %7, align 4
  %42 = load i32, ptr %12, align 4
  %43 = icmp ugt i32 %42, 0
  br i1 %43, label %44, label %47

44:                                               ; preds = %36
  %45 = load ptr, ptr %13, align 8
  %46 = load i32, ptr %11, align 4
  call void (ptr, ptr, ...) @proto_item_append_text(ptr noundef %45, ptr noundef @.str.1251, i32 noundef %46)
  br label %50

47:                                               ; preds = %36
  %48 = load ptr, ptr %13, align 8
  %49 = load i32, ptr %11, align 4
  call void (ptr, ptr, ...) @proto_item_append_text(ptr noundef %48, ptr noundef @.str.1226, i32 noundef %49)
  br label %50

50:                                               ; preds = %47, %44
  br label %51

51:                                               ; preds = %50
  %52 = load i32, ptr %12, align 4
  %53 = add i32 %52, 1
  store i32 %53, ptr %12, align 4
  br label %32, !llvm.loop !36

54:                                               ; preds = %32
  %55 = load ptr, ptr %13, align 8
  call void (ptr, ptr, ...) @proto_item_append_text(ptr noundef %55, ptr noundef @.str.1252)
  %56 = load i32, ptr %7, align 4
  call void @llvm.lifetime.end.p0(i64 24, ptr %15) #11
  call void @llvm.lifetime.end.p0(i64 8, ptr %14) #11
  call void @llvm.lifetime.end.p0(i64 8, ptr %13) #11
  call void @llvm.lifetime.end.p0(i64 4, ptr %12) #11
  call void @llvm.lifetime.end.p0(i64 4, ptr %11) #11
  ret i32 %56
}