; Function Attrs: null_pointer_is_valid sspstrong uwtable
define internal noundef i32 @parse_uin32_array(ptr noundef %0, i32 noundef %1, ptr noundef %2, i32 noundef %3, ptr noundef %4, ...) unnamed_addr #0 {
  %6 = alloca ptr, align 8
  %7 = alloca [1 x %struct.__va_list_tag], align 16
  call void @llvm.lifetime.start.p0(i64 8, ptr nonnull %6) #11
  call void @llvm.lifetime.start.p0(i64 24, ptr nonnull %7) #11
  call void @llvm.va_start.p0(ptr nonnull %7)
  %8 = call ptr @wmem_packet_scope()
  %9 = call noalias ptr @wmem_strdup_vprintf(ptr noundef %8, ptr noundef %4, ptr noundef nonnull %7)
  call void @llvm.va_end.p0(ptr nonnull %7)
  %10 = shl i32 %3, 2
  %11 = load i32, ptr @ett_mswsp_uin32_array, align 4
  %12 = call ptr @proto_tree_add_subtree(ptr noundef %2, ptr noundef %0, i32 noundef %1, i32 noundef %10, i32 noundef %11, ptr noundef nonnull %6, ptr noundef %9)
  %13 = load ptr, ptr %6, align 8
  call void (ptr, ptr, ...) @proto_item_append_text(ptr noundef %13, ptr noundef nonnull @.str.1434, i32 noundef %3)
  %.not19 = icmp eq i32 %3, 0
  br i1 %.not19, label %._crit_edge, label %.lr.ph

.lr.ph:                                           ; preds = %5, %.lr.ph
  %.018 = phi i32 [ %15, %.lr.ph ], [ %1, %5 ]
  %.01617 = phi i32 [ %17, %.lr.ph ], [ 0, %5 ]
  %14 = call i32 @tvb_get_letohl(ptr noundef %0, i32 noundef %.018)
  %15 = add i32 %.018, 4
  %.not = icmp eq i32 %.01617, 0
  %16 = load ptr, ptr %6, align 8
  %.str.1226..str.1251 = select i1 %.not, ptr @.str.1226, ptr @.str.1251
  call void (ptr, ptr, ...) @proto_item_append_text(ptr noundef %16, ptr noundef nonnull %.str.1226..str.1251, i32 noundef %14)
  %17 = add nuw i32 %.01617, 1
  %exitcond.not = icmp eq i32 %17, %3
  br i1 %exitcond.not, label %._crit_edge, label %.lr.ph, !llvm.loop !36

._crit_edge:                                      ; preds = %.lr.ph, %5
  %.0.lcssa = phi i32 [ %1, %5 ], [ %15, %.lr.ph ]
  %18 = load ptr, ptr %6, align 8
  call void (ptr, ptr, ...) @proto_item_append_text(ptr noundef %18, ptr noundef nonnull @.str.1252)
  call void @llvm.lifetime.end.p0(i64 24, ptr nonnull %7) #11
  call void @llvm.lifetime.end.p0(i64 8, ptr nonnull %6) #11
  ret i32 %.0.lcssa
}